; Function Attrs: mustprogress nofree norecurse nosync nounwind willreturn memory(read, argmem: readwrite, inaccessiblemem: none) uwtable
define internal fastcc range(i32 0, 4) i32 @read_intra_mode(ptr noundef nonnull captures(none) %0, ptr noundef nonnull writeonly captures(none) initializes((0, 4)) %1) unnamed_addr #8 {
  %3 = getelementptr inbounds nuw i8, ptr %0, i64 16
  %4 = load i32, ptr %3, align 8, !tbaa !51
  %5 = load ptr, ptr %0, align 8, !tbaa !43
  %6 = lshr i32 %4, 3
  %7 = zext nneg i32 %6 to i64
  %8 = getelementptr inbounds nuw i8, ptr %5, i64 %7
  %9 = load i8, ptr %8, align 1, !tbaa !42
  %10 = getelementptr inbounds nuw i8, ptr %0, i64 24
  %11 = load i32, ptr %10, align 8, !tbaa !46
  %12 = icmp slt i32 %4, %11
  %13 = zext i1 %12 to i32
  %spec.select.i = add i32 %4, %13
  %14 = zext i8 %9 to i32
  %15 = and i32 %4, 7
  store i32 %spec.select.i, ptr %3, align 8, !tbaa !51
  %16 = lshr exact i32 128, %15
  %17 = and i32 %16, %14
  %.not = icmp eq i32 %17, 0
  %18 = lshr i32 %spec.select.i, 3
  %19 = zext nneg i32 %18 to i64
  %20 = getelementptr inbounds nuw i8, ptr %5, i64 %19
  br i1 %.not, label %42, label %21

21:                                               ; preds = %2
  %22 = load i8, ptr %20, align 1, !tbaa !42
  %23 = icmp slt i32 %spec.select.i, %11
  %24 = zext i1 %23 to i32
  %spec.select.i.i = add i32 %spec.select.i, %24
  %25 = zext i8 %22 to i32
  %26 = and i32 %spec.select.i, 7
  store i32 %spec.select.i.i, ptr %3, align 8, !tbaa !51
  %27 = lshr exact i32 128, %26
  %28 = and i32 %27, %25
  %.not.i = icmp eq i32 %28, 0
  br i1 %.not.i, label %read_code012.exit, label %29

29:                                               ; preds = %21
  %30 = lshr i32 %spec.select.i.i, 3
  %31 = zext nneg i32 %30 to i64
  %32 = getelementptr inbounds nuw i8, ptr %5, i64 %31
  %33 = load i8, ptr %32, align 1, !tbaa !42
  %34 = icmp slt i32 %spec.select.i.i, %11
  %35 = zext i1 %34 to i32
  %spec.select.i2.i = add i32 %spec.select.i.i, %35
  %36 = zext i8 %33 to i32
  %37 = and i32 %spec.select.i.i, 7
  %38 = shl nuw nsw i32 %36, %37
  %39 = lshr i32 %38, 7
  store i32 %spec.select.i2.i, ptr %3, align 8, !tbaa !51
  %40 = and i32 %39, 1
  %41 = add nuw nsw i32 %40, 1
  br label %read_code012.exit

42:                                               ; preds = %2
  %43 = load i32, ptr %20, align 1, !tbaa !42
  %44 = tail call i32 @llvm.bswap.i32(i32 %43)
  %45 = and i32 %spec.select.i, 7
  %46 = shl i32 %44, %45
  %47 = lshr i32 %46, 27
  %48 = add i32 %spec.select.i, 5
  %49 = tail call i32 @llvm.umin.i32(i32 %11, i32 %48)
  store i32 %49, ptr %3, align 8, !tbaa !51
  br label %read_code012.exit

read_code012.exit:                                ; preds = %29, %21, %42
  %storemerge = phi i32 [ %47, %42 ], [ %41, %29 ], [ 0, %21 ]
  %.0 = phi i32 [ 3, %42 ], [ 0, %29 ], [ 0, %21 ]
  store i32 %storemerge, ptr %1, align 4, !tbaa !40
  ret i32 %.0
}